; Function Attrs: mustprogress uwtable
define void @_ZN9ns16550_t4tickEm(ptr noundef nonnull align 8 dereferenceable(128) %0, i64 %1) unnamed_addr #3 align 2 {
  %3 = alloca i8, align 1
  %4 = getelementptr inbounds i8, ptr %0, i64 116
  %5 = load i8, ptr %4, align 4
  %6 = and i8 %5, 1
  %.not = icmp eq i8 %6, 0
  br i1 %.not, label %64, label %7

7:                                                ; preds = %2
  %8 = getelementptr inbounds i8, ptr %0, i64 118
  %9 = load i8, ptr %8, align 2
  %10 = and i8 %9, 16
  %.not3 = icmp eq i8 %10, 0
  br i1 %.not3, label %11, label %64

11:                                               ; preds = %7
  %12 = getelementptr inbounds i8, ptr %0, i64 32
  %13 = getelementptr inbounds i8, ptr %0, i64 80
  %14 = getelementptr inbounds i8, ptr %0, i64 48
  %15 = getelementptr inbounds i8, ptr %0, i64 104
  %16 = load ptr, ptr %15, align 8
  %17 = getelementptr inbounds i8, ptr %0, i64 72
  %18 = load ptr, ptr %17, align 8
  %19 = ptrtoint ptr %16 to i64
  %20 = ptrtoint ptr %18 to i64
  %21 = sub i64 %19, %20
  %22 = ashr exact i64 %21, 3
  %23 = icmp ne ptr %16, null
  %.neg.i.i.i = sext i1 %23 to i64
  %24 = add nsw i64 %22, %.neg.i.i.i
  %25 = shl nsw i64 %24, 9
  %26 = load ptr, ptr %13, align 8
  %27 = getelementptr inbounds i8, ptr %0, i64 88
  %28 = load ptr, ptr %27, align 8
  %29 = ptrtoint ptr %26 to i64
  %30 = ptrtoint ptr %28 to i64
  %31 = getelementptr inbounds i8, ptr %0, i64 64
  %32 = load ptr, ptr %31, align 8
  %33 = load ptr, ptr %14, align 8
  %34 = ptrtoint ptr %32 to i64
  %35 = ptrtoint ptr %33 to i64
  %36 = sub i64 %29, %30
  %37 = add i64 %36, %34
  %38 = add i64 %37, %25
  %39 = sub i64 %38, %35
  %40 = icmp ugt i64 %39, 63
  br i1 %40, label %64, label %41

41:                                               ; preds = %11
  %42 = getelementptr inbounds i8, ptr %0, i64 124
  %43 = load i32, ptr %42, align 4
  %44 = add i32 %43, -1
  %or.cond = icmp ult i32 %44, 15
  br i1 %or.cond, label %45, label %47

45:                                               ; preds = %41
  %46 = add nuw nsw i32 %43, 1
  store i32 %46, ptr %42, align 4
  br label %64

47:                                               ; preds = %41
  %48 = tail call noundef i32 @_ZN20canonical_terminal_t4readEv()
  %49 = icmp slt i32 %48, 0
  br i1 %49, label %50, label %51

50:                                               ; preds = %47
  store i32 1, ptr %42, align 4
  br label %64

51:                                               ; preds = %47
  store i32 0, ptr %42, align 4
  %52 = trunc i32 %48 to i8
  store i8 %52, ptr %3, align 1
  %53 = load ptr, ptr %13, align 8
  %54 = getelementptr inbounds i8, ptr %0, i64 96
  %55 = load ptr, ptr %54, align 8
  %56 = getelementptr inbounds i8, ptr %55, i64 -1
  %.not.i.i.i = icmp eq ptr %53, %56
  br i1 %.not.i.i.i, label %60, label %57

57:                                               ; preds = %51
  store i8 %52, ptr %53, align 1
  %58 = load ptr, ptr %13, align 8
  %59 = getelementptr inbounds i8, ptr %58, i64 1
  store ptr %59, ptr %13, align 8
  br label %_ZNSt5queueIhSt5dequeIhSaIhEEE4pushEOh.exit

60:                                               ; preds = %51
  call void @_ZNSt5dequeIhSaIhEE16_M_push_back_auxIJhEEEvDpOT_(ptr noundef nonnull align 8 dereferenceable(80) %12, ptr noundef nonnull align 1 dereferenceable(1) %3)
  br label %_ZNSt5queueIhSt5dequeIhSaIhEEE4pushEOh.exit

_ZNSt5queueIhSt5dequeIhSaIhEEE4pushEOh.exit:      ; preds = %57, %60
  %61 = getelementptr inbounds i8, ptr %0, i64 119
  %62 = load i8, ptr %61, align 1
  %63 = or i8 %62, 1
  store i8 %63, ptr %61, align 1
  call void @_ZN9ns16550_t16update_interruptEv(ptr noundef nonnull align 8 dereferenceable(128) %0)
  br label %64

64:                                               ; preds = %2, %7, %11, %_ZNSt5queueIhSt5dequeIhSaIhEEE4pushEOh.exit, %50, %45
  ret void
}